target datalayout = "e-m:e-p270:32:32-p271:32:32-p272:64:64-i64:64-i128:128-f80:128-n8:16:32:64-S128"
target triple = "x86_64-pc-linux-gnu"

%struct.BM3DContext = type { ptr, float, i32, i32, i32, i32, i32, float, float, i32, i32, i32, i32, i32, i32, [4 x i32], [4 x i32], i32, i32, [32 x %struct.SliceContext], %struct.FFFrameSync, i32, ptr, ptr, ptr, ptr }
%struct.SliceContext = type { ptr, ptr, ptr, ptr, ptr, ptr, ptr, ptr, ptr, ptr, ptr, ptr, ptr, ptr, ptr, ptr, ptr, ptr, ptr, [256 x %struct.PosPairCode], i32, ptr }
%struct.PosPairCode = type { double, i32, i32 }
%struct.FFFrameSync = type { ptr, ptr, i32, %struct.AVRational, i64, ptr, ptr, i32, i32, i8, i8, ptr, i32, i32, i32, i32 }
%struct.AVRational = type { i32, i32 }
%struct.PosCode = type { i32, i32 }

; Function Attrs: nounwind uwtable
define internal double @do_block_ssd16(ptr noundef %0, ptr noundef %1, ptr noundef %2, i32 noundef %3, i32 noundef %4, i32 noundef %5) #1 {
  %7 = alloca ptr, align 8
  %8 = alloca ptr, align 8
  %9 = alloca ptr, align 8
  %10 = alloca i32, align 4
  %11 = alloca i32, align 4
  %12 = alloca i32, align 4
  %13 = alloca ptr, align 8
  %14 = alloca ptr, align 8
  %15 = alloca i32, align 4
  %16 = alloca double, align 8
  %17 = alloca i32, align 4
  %18 = alloca i32, align 4
  %19 = alloca double, align 8
  store ptr %0, ptr %7, align 8, !tbaa !22
  store ptr %1, ptr %8, align 8, !tbaa !125
  store ptr %2, ptr %9, align 8, !tbaa !91
  store i32 %3, ptr %10, align 4, !tbaa !43
  store i32 %4, ptr %11, align 4, !tbaa !43
  store i32 %5, ptr %12, align 4, !tbaa !43
  call void @llvm.lifetime.start.p0(i64 8, ptr %13) #12
  %20 = load ptr, ptr %9, align 8, !tbaa !91
  %21 = load ptr, ptr %8, align 8, !tbaa !125
  %22 = getelementptr inbounds nuw %struct.PosCode, ptr %21, i32 0, i32 1
  %23 = load i32, ptr %22, align 4, !tbaa !119
  %24 = load i32, ptr %10, align 4, !tbaa !43
  %25 = mul nsw i32 %23, %24
  %26 = sdiv i32 %25, 2
  %27 = sext i32 %26 to i64
  %28 = getelementptr inbounds i16, ptr %20, i64 %27
  %29 = load ptr, ptr %8, align 8, !tbaa !125
  %30 = getelementptr inbounds nuw %struct.PosCode, ptr %29, i32 0, i32 0
  %31 = load i32, ptr %30, align 4, !tbaa !121
  %32 = sext i32 %31 to i64
  %33 = getelementptr inbounds i16, ptr %28, i64 %32
  store ptr %33, ptr %13, align 8, !tbaa !213
  call void @llvm.lifetime.start.p0(i64 8, ptr %14) #12
  %34 = load ptr, ptr %9, align 8, !tbaa !91
  %35 = load i32, ptr %11, align 4, !tbaa !43
  %36 = load i32, ptr %10, align 4, !tbaa !43
  %37 = mul nsw i32 %35, %36
  %38 = sdiv i32 %37, 2
  %39 = sext i32 %38 to i64
  %40 = getelementptr inbounds i16, ptr %34, i64 %39
  %41 = load i32, ptr %12, align 4, !tbaa !43
  %42 = sext i32 %41 to i64
  %43 = getelementptr inbounds i16, ptr %40, i64 %42
  store ptr %43, ptr %14, align 8, !tbaa !213
  call void @llvm.lifetime.start.p0(i64 4, ptr %15) #12
  %44 = load ptr, ptr %7, align 8, !tbaa !22
  %45 = getelementptr inbounds nuw %struct.BM3DContext, ptr %44, i32 0, i32 2
  %46 = load i32, ptr %45, align 4, !tbaa !36
  store i32 %46, ptr %15, align 4, !tbaa !43
  call void @llvm.lifetime.start.p0(i64 8, ptr %16) #12
  store double 0.000000e+00, ptr %16, align 8, !tbaa !128
  call void @llvm.lifetime.start.p0(i64 4, ptr %17) #12
  call void @llvm.lifetime.start.p0(i64 4, ptr %18) #12
  store i32 0, ptr %18, align 4, !tbaa !43
  br label %47

47:                                               ; preds = %89, %6
  %48 = load i32, ptr %18, align 4, !tbaa !43
  %49 = load i32, ptr %15, align 4, !tbaa !43
  %50 = icmp slt i32 %48, %49
  br i1 %50, label %51, label %92

51:                                               ; preds = %47
  store i32 0, ptr %17, align 4, !tbaa !43
  br label %52

52:                                               ; preds = %75, %51
  %53 = load i32, ptr %17, align 4, !tbaa !43
  %54 = load i32, ptr %15, align 4, !tbaa !43
  %55 = icmp slt i32 %53, %54
  br i1 %55, label %56, label %78

56:                                               ; preds = %52
  call void @llvm.lifetime.start.p0(i64 8, ptr %19) #12
  %57 = load ptr, ptr %14, align 8, !tbaa !213
  %58 = load i32, ptr %17, align 4, !tbaa !43
  %59 = sext i32 %58 to i64
  %60 = getelementptr inbounds i16, ptr %57, i64 %59
  %61 = load i16, ptr %60, align 2, !tbaa !216
  %62 = zext i16 %61 to i32
  %63 = load ptr, ptr %13, align 8, !tbaa !213
  %64 = load i32, ptr %17, align 4, !tbaa !43
  %65 = sext i32 %64 to i64
  %66 = getelementptr inbounds i16, ptr %63, i64 %65
  %67 = load i16, ptr %66, align 2, !tbaa !216
  %68 = zext i16 %67 to i32
  %69 = sub nsw i32 %62, %68
  %70 = sitofp i32 %69 to double
  store double %70, ptr %19, align 8, !tbaa !128
  %71 = load double, ptr %19, align 8, !tbaa !128
  %72 = load double, ptr %19, align 8, !tbaa !128
  %73 = load double, ptr %16, align 8, !tbaa !128
  %74 = call nsz double @llvm.fmuladd.f64(double %71, double %72, double %73)
  store double %74, ptr %16, align 8, !tbaa !128
  call void @llvm.lifetime.end.p0(i64 8, ptr %19) #12
  br label %75

75:                                               ; preds = %56
  %76 = load i32, ptr %17, align 4, !tbaa !43
  %77 = add nsw i32 %76, 1
  store i32 %77, ptr %17, align 4, !tbaa !43
  br label %52, !llvm.loop !220

78:                                               ; preds = %52
  %79 = load i32, ptr %10, align 4, !tbaa !43
  %80 = sdiv i32 %79, 2
  %81 = load ptr, ptr %13, align 8, !tbaa !213
  %82 = sext i32 %80 to i64
  %83 = getelementptr inbounds i16, ptr %81, i64 %82
  store ptr %83, ptr %13, align 8, !tbaa !213
  %84 = load i32, ptr %10, align 4, !tbaa !43
  %85 = sdiv i32 %84, 2
  %86 = load ptr, ptr %14, align 8, !tbaa !213
  %87 = sext i32 %85 to i64
  %88 = getelementptr inbounds i16, ptr %86, i64 %87
  store ptr %88, ptr %14, align 8, !tbaa !213
  br label %89

89:                                               ; preds = %78
  %90 = load i32, ptr %18, align 4, !tbaa !43
  %91 = add nsw i32 %90, 1
  store i32 %91, ptr %18, align 4, !tbaa !43
  br label %47, !llvm.loop !221

92:                                               ; preds = %47
  %93 = load double, ptr %16, align 8, !tbaa !128
  call void @llvm.lifetime.end.p0(i64 4, ptr %18) #12
  call void @llvm.lifetime.end.p0(i64 4, ptr %17) #12
  call void @llvm.lifetime.end.p0(i64 8, ptr %16) #12
  call void @llvm.lifetime.end.p0(i64 4, ptr %15) #12
  call void @llvm.lifetime.end.p0(i64 8, ptr %14) #12
  call void @llvm.lifetime.end.p0(i64 8, ptr %13) #12
  ret double %93
}