; Function Attrs: nofree norecurse nosync nounwind memory(argmem: read) uwtable
define internal double @do_block_ssd16(ptr noundef readonly captures(none) %0, ptr noundef readonly captures(none) %1, ptr noundef readonly captures(none) %2, i32 noundef %3, i32 noundef %4, i32 noundef %5) #12 {
  %7 = getelementptr inbounds nuw i8, ptr %0, i64 12
  %8 = load i32, ptr %7, align 4, !tbaa !33
  %9 = icmp sgt i32 %8, 0
  br i1 %9, label %.preheader.lr.ph, label %._crit_edge37

.preheader.lr.ph:                                 ; preds = %6
  %10 = mul nsw i32 %4, %3
  %11 = sdiv i32 %10, 2
  %12 = sext i32 %11 to i64
  %13 = getelementptr inbounds i16, ptr %2, i64 %12
  %14 = sext i32 %5 to i64
  %15 = getelementptr inbounds i16, ptr %13, i64 %14
  %16 = getelementptr inbounds nuw i8, ptr %1, i64 4
  %17 = load i32, ptr %16, align 4, !tbaa !107
  %18 = mul nsw i32 %17, %3
  %19 = sdiv i32 %18, 2
  %20 = sext i32 %19 to i64
  %21 = getelementptr inbounds i16, ptr %2, i64 %20
  %22 = load i32, ptr %1, align 4, !tbaa !109
  %23 = sext i32 %22 to i64
  %24 = getelementptr inbounds i16, ptr %21, i64 %23
  %25 = sdiv i32 %3, 2
  %26 = sext i32 %25 to i64
  %wide.trip.count = zext nneg i32 %8 to i64
  br label %.preheader.us

.preheader.us:                                    ; preds = %._crit_edge.us, %.preheader.lr.ph
  %.036.us = phi ptr [ %24, %.preheader.lr.ph ], [ %37, %._crit_edge.us ]
  %.02635.us = phi i32 [ 0, %.preheader.lr.ph ], [ %39, %._crit_edge.us ]
  %.02834.us = phi double [ 0.000000e+00, %.preheader.lr.ph ], [ %36, %._crit_edge.us ]
  %.02933.us = phi ptr [ %15, %.preheader.lr.ph ], [ %38, %._crit_edge.us ]
  br label %27

27:                                               ; preds = %.preheader.us, %27
  %indvars.iv = phi i64 [ 0, %.preheader.us ], [ %indvars.iv.next, %27 ]
  %.131.us = phi double [ %.02834.us, %.preheader.us ], [ %36, %27 ]
  %28 = getelementptr inbounds nuw i16, ptr %.02933.us, i64 %indvars.iv
  %29 = load i16, ptr %28, align 2, !tbaa !190
  %30 = zext i16 %29 to i32
  %31 = getelementptr inbounds nuw i16, ptr %.036.us, i64 %indvars.iv
  %32 = load i16, ptr %31, align 2, !tbaa !190
  %33 = zext i16 %32 to i32
  %34 = sub nsw i32 %30, %33
  %35 = sitofp i32 %34 to double
  %36 = tail call nsz double @llvm.fmuladd.f64(double %35, double %35, double %.131.us)
  %indvars.iv.next = add nuw nsw i64 %indvars.iv, 1
  %exitcond.not = icmp eq i64 %indvars.iv.next, %wide.trip.count
  br i1 %exitcond.not, label %._crit_edge.us, label %27, !llvm.loop !194

._crit_edge.us:                                   ; preds = %27
  %37 = getelementptr inbounds i16, ptr %.036.us, i64 %26
  %38 = getelementptr inbounds i16, ptr %.02933.us, i64 %26
  %39 = add nuw nsw i32 %.02635.us, 1
  %exitcond40.not = icmp eq i32 %39, %8
  br i1 %exitcond40.not, label %._crit_edge37, label %.preheader.us, !llvm.loop !195

._crit_edge37:                                    ; preds = %._crit_edge.us, %6
  %.028.lcssa = phi double [ 0.000000e+00, %6 ], [ %36, %._crit_edge.us ]
  ret double %.028.lcssa
}